target datalayout = "e-m:e-p270:32:32-p271:32:32-p272:64:64-i64:64-i128:128-f80:128-n8:16:32:64-S128"
target triple = "x86_64-pc-linux-gnu"

@__const._ZN11opencv_test39Layer_Slice_FastNeuralStyle_eccv16_Test12PerfTestBodyEv.inputShape = private unnamed_addr constant [4 x i32] [i32 1, i32 128, i32 80, i32 100], align 16
@__const._ZN11opencv_test39Layer_Slice_FastNeuralStyle_eccv16_Test12PerfTestBodyEv.begin = private unnamed_addr constant [4 x i32] [i32 0, i32 0, i32 2, i32 2], align 16
@__const._ZN11opencv_test39Layer_Slice_FastNeuralStyle_eccv16_Test12PerfTestBodyEv.end = private unnamed_addr constant [4 x i32] [i32 1, i32 128, i32 76, i32 96], align 16

; Function Attrs: mustprogress uwtable
define hidden void @_ZN11opencv_test39Layer_Slice_FastNeuralStyle_eccv16_Test12PerfTestBodyEv(ptr noundef nonnull align 8 dereferenceable(257) %0) unnamed_addr #7 align 2 {
  %2 = alloca ptr, align 8
  %3 = alloca [4 x i32], align 16
  %4 = alloca [4 x i32], align 16
  %5 = alloca [4 x i32], align 16
  store ptr %0, ptr %2, align 8, !tbaa !196
  %6 = load ptr, ptr %2, align 8
  call void @llvm.lifetime.start.p0(i64 16, ptr %3) #3
  call void @llvm.memcpy.p0.p0.i64(ptr align 16 %3, ptr align 16 @__const._ZN11opencv_test39Layer_Slice_FastNeuralStyle_eccv16_Test12PerfTestBodyEv.inputShape, i64 16, i1 false)
  call void @llvm.lifetime.start.p0(i64 16, ptr %4) #3
  call void @llvm.memcpy.p0.p0.i64(ptr align 16 %4, ptr align 16 @__const._ZN11opencv_test39Layer_Slice_FastNeuralStyle_eccv16_Test12PerfTestBodyEv.begin, i64 16, i1 false)
  call void @llvm.lifetime.start.p0(i64 16, ptr %5) #3
  call void @llvm.memcpy.p0.p0.i64(ptr align 16 %5, ptr align 16 @__const._ZN11opencv_test39Layer_Slice_FastNeuralStyle_eccv16_Test12PerfTestBodyEv.end, i64 16, i1 false)
  %7 = getelementptr inbounds [4 x i32], ptr %3, i64 0, i64 0
  %8 = getelementptr inbounds [4 x i32], ptr %4, i64 0, i64 0
  %9 = getelementptr inbounds [4 x i32], ptr %5, i64 0, i64 0
  call void @_ZN11opencv_test11Layer_Slice10test_sliceILi4EEEvPKiS3_S3_(ptr noundef nonnull align 8 dereferenceable(256) %6, ptr noundef %7, ptr noundef %8, ptr noundef %9)
  call void @llvm.lifetime.end.p0(i64 16, ptr %5) #3
  call void @llvm.lifetime.end.p0(i64 16, ptr %4) #3
  call void @llvm.lifetime.end.p0(i64 16, ptr %3) #3
  ret void
}